; Function Attrs: null_pointer_is_valid sspstrong uwtable
define hidden noundef zeroext i16 @de_emm_trac_area_id(ptr noundef %0, ptr noundef %1, ptr noundef %2, i32 noundef %3, i32 %4, ptr readnone captures(none) %5, i32 %6) #1 {
  %8 = tail call i32 @dissect_e212_mcc_mnc(ptr noundef %0, ptr noundef %2, ptr noundef %1, i32 noundef %3, i32 noundef 6, i1 noundef zeroext true)
  %9 = load i32, ptr @hf_nas_eps_emm_tai_tac, align 4
  %10 = tail call ptr @proto_tree_add_item(ptr noundef %1, i32 noundef %9, ptr noundef %0, i32 noundef %8, i32 noundef 2, i32 noundef 0)
  %reass.sub = sub i32 %8, %3
  %11 = trunc i32 %reass.sub to i16
  %12 = add i16 %11, 2
  ret i16 %12
}